target datalayout = "e-m:e-p270:32:32-p271:32:32-p272:64:64-i64:64-i128:128-f80:128-n8:16:32:64-S128"
target triple = "x86_64-pc-linux-gnu"

%struct.MaterialState = type { %struct.ScanState, i32, i8, ptr }
%struct.ScanState = type { %struct.PlanState, ptr, ptr, ptr }
%struct.PlanState = type { i32, ptr, ptr, ptr, ptr, ptr, ptr, ptr, ptr, ptr, ptr, ptr, ptr, ptr, ptr, ptr, ptr, ptr, i8, ptr, ptr, ptr, ptr, ptr, i8, i8, i8, i8, i8, i8, i8, i8 }

; Function Attrs: nounwind uwtable
define dso_local void @ExecMaterialRestrPos(ptr noundef %0) #0 {
  %2 = alloca ptr, align 8
  store ptr %0, ptr %2, align 8
  %3 = load ptr, ptr %2, align 8
  %4 = getelementptr inbounds nuw %struct.MaterialState, ptr %3, i32 0, i32 3
  %5 = load ptr, ptr %4, align 8
  %6 = icmp ne ptr %5, null
  br i1 %6, label %8, label %7

7:                                                ; preds = %1
  br label %12

8:                                                ; preds = %1
  %9 = load ptr, ptr %2, align 8
  %10 = getelementptr inbounds nuw %struct.MaterialState, ptr %9, i32 0, i32 3
  %11 = load ptr, ptr %10, align 8
  call void @tuplestore_copy_read_pointer(ptr noundef %11, i32 noundef 1, i32 noundef 0)
  br label %12

12:                                               ; preds = %8, %7
  ret void
}