; Function Attrs: nounwind uwtable
define dso_local void @ExecMaterialRestrPos(ptr noundef readonly captures(none) %0) local_unnamed_addr #0 {
  %2 = getelementptr inbounds nuw i8, ptr %0, i64 232
  %3 = load ptr, ptr %2, align 8
  %.not = icmp eq ptr %3, null
  br i1 %.not, label %5, label %4

4:                                                ; preds = %1
  tail call void @tuplestore_copy_read_pointer(ptr noundef nonnull %3, i32 noundef 1, i32 noundef 0) #2
  br label %5

5:                                                ; preds = %1, %4
  ret void
}